Certificate:
    Data:
        Version: 3 (0x2)
        Serial Number: 8192 (0x2000)
    Signature Algorithm: sha1WithRSAEncryption
        Issuer: C=US, ST=NY, L=SY, O=syr.com, OU=syr.com, CN=syr.com/emailAddress=su@syr.com
        Validity
            Not Before: Apr 14 03:31:57 2017 GMT
            Not After : Apr 14 03:31:57 2018 GMT
        Subject: C=US, ST=NY, L=SY, O=client.com, OU=client.com, CN=client.com/emailAddress=cli@client.com
        Subject Public Key Info:
            Public Key Algorithm: rsaEncryption
                Public-Key: (1024 bit)
                Modulus:
                    00:de:37:ff:e4:1d:d0:b1:f3:3a:9e:cb:06:df:28:
                    b3:38:bd:6c:d2:62:52:e6:97:2c:2f:7b:ca:2a:fa:
                    6a:31:02:18:e0:1a:f6:27:b4:eb:ba:37:9e:95:b1:
                    8d:15:78:5e:7b:32:22:75:9f:40:15:5a:3f:31:57:
                    54:21:e0:88:2e:1d:3a:56:4d:1b:66:ba:55:ad:23:
                    db:f8:b0:f6:f0:80:03:c8:5e:1d:51:0f:81:40:96:
                    b8:a3:1e:f1:88:6f:5a:64:36:80:04:e2:fe:f6:01:
                    ce:0a:48:9d:5b:1c:6e:09:56:64:49:9b:66:53:9d:
                    0b:e8:8d:9b:97:70:58:15:15
                Exponent: 65537 (0x10001)
        X509v3 extensions:
            X509v3 Basic Constraints: 
                CA:FALSE
            Netscape Comment: 
                OpenSSL Generated Certificate
            X509v3 Subject Key Identifier: 
                AD:D5:74:F6:8E:16:CC:BE:54:CB:33:28:F4:EF:7F:4C:4E:EC:39:1C
            X509v3 Authority Key Identifier: 
                keyid:C4:2F:5B:77:B7:88:34:3C:3A:13:16:36:31:13:96:04:1C:65:04:6F

    Signature Algorithm: sha1WithRSAEncryption
         7d:0a:02:1a:9a:8b:52:c6:48:55:66:ed:d2:f8:47:ff:5b:b2:
         6d:81:50:d0:01:27:48:cc:d3:5b:25:a0:fd:43:1d:f6:ec:56:
         6c:7f:02:e7:a4:9e:89:72:b2:b5:f6:ea:9e:5a:68:1b:dc:79:
         63:c3:0a:91:f0:fa:ca:03:9f:27:5d:80:fa:16:e4:27:a3:5f:
         a6:56:f7:5e:d3:0c:b6:c8:bc:30:07:e9:17:99:35:3f:93:8a:
         72:ba:e9:ae:36:b9:e5:b0:80:60:40:5c:9c:6b:a3:0b:0d:5c:
         69:cc:63:ae:04:35:41:9e:89:ad:b3:22:34:ac:1f:6d:c4:7d:
         39:d2
-----BEGIN CERTIFICATE-----
MIIC8DCCAlmgAwIBAgICIAAwDQYJKoZIhvcNAQEFBQAweDELMAkGA1UEBhMCVVMx
CzAJBgNVBAgMAk5ZMQswCQYDVQQHDAJTWTEQMA4GA1UECgwHc3lyLmNvbTEQMA4G
A1UECwwHc3lyLmNvbTEQMA4GA1UEAwwHc3lyLmNvbTEZMBcGCSqGSIb3DQEJARYK
c3VAc3lyLmNvbTAeFw0xNzA0MTQwMzMxNTdaFw0xODA0MTQwMzMxNTdaMIGFMQsw
CQYDVQQGEwJVUzELMAkGA1UECAwCTlkxCzAJBgNVBAcMAlNZMRMwEQYDVQQKDApj
bGllbnQuY29tMRMwEQYDVQQLDApjbGllbnQuY29tMRMwEQYDVQQDDApjbGllbnQu
Y29tMR0wGwYJKoZIhvcNAQkBFg5jbGlAY2xpZW50LmNvbTCBnzANBgkqhkiG9w0B
AQEFAAOBjQAwgYkCgYEA3jf/5B3QsfM6nssG3yizOL1s0mJS5pcsL3vKKvpqMQIY
4Br2J7TrujeelbGNFXheezIidZ9AFVo/MVdUIeCILh06Vk0bZrpVrSPb+LD28IAD
yF4dUQ+BQJa4ox7xiG9aZDaABOL+9gHOCkidWxxuCVZkSZtmU50L6I2bl3BYFRUC
AwEAAaN7MHkwCQYDVR0TBAIwADAsBglghkgBhvhCAQ0EHxYdT3BlblNTTCBHZW5l
cmF0ZWQgQ2VydGlmaWNhdGUwHQYDVR0OBBYEFK3VdPaOFsy+VMszKPTvf0xO7Dkc
MB8GA1UdIwQYMBaAFMQvW3e3iDQ8OhMWNjETlgQcZQRvMA0GCSqGSIb3DQEBBQUA
A4GBAH0KAhqai1LGSFVm7dL4R/9bsm2BUNABJ0jM01sloP1DHfbsVmx/Aueknoly
srX26p5aaBvceWPDCpHw+soDnyddgPoW5CejX6ZW917TDLbIvDAH6ReZNT+TinK6
6a42ueWwgGBAXJxrowsNXGnMY64ENUGeia2zIjSsH23EfTnS
-----END CERTIFICATE-----
