-----BEGIN RSA PRIVATE KEY-----
Proc-Type: 4,ENCRYPTED
DEK-Info: DES-EDE3-CBC,4070294EC01973D7

EaU2BpPmPuQygkSwaBdvoQ3fAvGk479BmGxmEu4b/6Cjv4myZfdAkFZsXAntFPpe
czOF6GqrN85vRCvFPIVVGnlVQQezvGYXvn41fIdPjR9t1g0ViQU49ykoGUm9X+6q
x3ZGIzLlygXYJzpR8Q0OqjEJf6RrnnOWu/iBiV6cZsqNT3Hh//q0KcyMxegNN26T
8N2qEvCUqGAtRhrOqN3w3+NpFUVv2+W0IoSAC+y4Zix2pFRjBV78UKhsxp8UjYND
dWdXYs9eAVjMPJ7qbkCiYp1Xs55Rz1F9jo4m4NT+X7MUh2KyUdKd2A2WzryoxWzm
FSORMeJLzeKnz7bk/zY342aJ57FXhIs6W0eUMmBsu0+GwT+nwGZlaaBloVOA2CY7
Gj7LkZewJadgSj3NL0tDAvkLwqPZpR3U4cUR+5xNGS3o8gLZSoQQCL8xrEKan3oT
LZvzCBrxp+yySyAp+WpFEj6yRX/pKdqpcZr0nbO2eoaqU2kGETP/FdFQvJwA+DWM
htZXT9cS2d8w6QfPi2QipN6y6j507dZgXiWpOSrGzAFmqHovjhs+6vqDQIPKrfTy
AB7XhEQC4p5tP2MU5TYlUjJMLxhUmrAAAKp8yakdnGrf2ZT6FhWkguXhNYi7rOiK
A36ANXaKGu1Upl4yqBhwTXM6oSsQ2QGjqMdBFDMgWfKcYYoTGVrqjXJADTaSZ7oc
JzyODHGNFgX/T7V20ECUv5jMoWNk5dz0aKmPazSHR1nPOMqT5MetKItZSqmxWcA/
Gm1QKsbL2rbqqeBa/0JuwxB5zaznQF0x+9IwkbWUTMI=
-----END RSA PRIVATE KEY-----
Certificate:
    Data:
        Version: 3 (0x2)
        Serial Number: 12288 (0x3000)
    Signature Algorithm: sha1WithRSAEncryption
        Issuer: C=US, ST=NY, L=SY, O=SU, OU=SU, CN=syr.edu/emailAddress=su@syr.edu
        Validity
            Not Before: Apr  9 04:32:30 2017 GMT
            Not After : Apr  9 04:32:30 2018 GMT
        Subject: C=US, ST=NY, L=SY, O=server, OU=server, CN=server.com/emailAddress=ser@server.com
        Subject Public Key Info:
            Public Key Algorithm: rsaEncryption
                Public-Key: (1024 bit)
                Modulus:
                    00:b5:26:89:a3:c0:f8:58:1a:65:f8:71:0b:bf:ec:
                    d2:19:2f:31:e3:56:31:f2:a5:c5:ac:77:fa:4a:04:
                    24:a8:5a:23:ab:fb:b3:2e:ba:a3:b2:c2:6d:5c:7c:
                    31:84:ab:3f:a3:08:ae:92:25:6d:e5:9b:bc:cf:be:
                    db:26:aa:6d:f3:0f:e2:5c:f4:f3:c9:f3:99:25:ea:
                    1c:5f:38:61:67:ba:8b:9d:32:1b:41:d8:d9:a4:22:
                    e7:e6:2a:c5:be:05:85:8f:57:97:df:d6:94:81:f8:
                    b0:7c:7f:16:26:95:5e:62:6b:ce:bd:72:53:97:ca:
                    3e:57:54:54:17:15:2e:be:df
                Exponent: 65537 (0x10001)
        X509v3 extensions:
            X509v3 Basic Constraints: 
                CA:FALSE
            Netscape Comment: 
                OpenSSL Generated Certificate
            X509v3 Subject Key Identifier: 
                32:41:7D:96:18:72:85:8C:09:BD:54:A4:55:BF:EF:33:D1:7F:6B:54
            X509v3 Authority Key Identifier: 
                keyid:FD:09:76:C4:29:68:E4:82:5E:4C:9E:98:D7:2E:3D:91:53:55:16:9B

    Signature Algorithm: sha1WithRSAEncryption
         75:3e:79:da:55:f3:07:c6:fd:43:fc:e2:06:59:41:bb:b4:24:
         a7:c6:e3:d2:1e:8b:c6:cb:ca:b9:44:11:33:89:13:91:30:2d:
         53:41:6b:b3:79:53:ab:e8:95:29:7c:a6:83:d6:66:00:bd:ac:
         fc:4f:9c:25:af:a8:65:0e:bd:92:24:9c:3c:58:f1:8b:92:03:
         aa:b1:8f:e2:5a:64:1a:61:74:6b:62:e6:16:56:84:09:ec:cc:
         a7:81:4f:ec:37:3f:b7:55:8b:6f:46:b4:77:98:19:63:47:f2:
         74:c7:2d:b0:7c:ae:83:6a:42:f3:79:c5:3c:cb:66:ef:ac:6d:
         f5:34
-----BEGIN CERTIFICATE-----
MIIC3TCCAkagAwIBAgICMAAwDQYJKoZIhvcNAQEFBQAwbjELMAkGA1UEBhMCVVMx
CzAJBgNVBAgMAk5ZMQswCQYDVQQHDAJTWTELMAkGA1UECgwCU1UxCzAJBgNVBAsM
AlNVMRAwDgYDVQQDDAdzeXIuZWR1MRkwFwYJKoZIhvcNAQkBFgpzdUBzeXIuZWR1
MB4XDTE3MDQwOTA0MzIzMFoXDTE4MDQwOTA0MzIzMFowfTELMAkGA1UEBhMCVVMx
CzAJBgNVBAgMAk5ZMQswCQYDVQQHDAJTWTEPMA0GA1UECgwGc2VydmVyMQ8wDQYD
VQQLDAZzZXJ2ZXIxEzARBgNVBAMMCnNlcnZlci5jb20xHTAbBgkqhkiG9w0BCQEW
DnNlckBzZXJ2ZXIuY29tMIGfMA0GCSqGSIb3DQEBAQUAA4GNADCBiQKBgQC1Jomj
wPhYGmX4cQu/7NIZLzHjVjHypcWsd/pKBCSoWiOr+7MuuqOywm1cfDGEqz+jCK6S
JW3lm7zPvtsmqm3zD+Jc9PPJ85kl6hxfOGFnuoudMhtB2NmkIufmKsW+BYWPV5ff
1pSB+LB8fxYmlV5ia869clOXyj5XVFQXFS6+3wIDAQABo3sweTAJBgNVHRMEAjAA
MCwGCWCGSAGG+EIBDQQfFh1PcGVuU1NMIEdlbmVyYXRlZCBDZXJ0aWZpY2F0ZTAd
BgNVHQ4EFgQUMkF9lhhyhYwJvVSkVb/vM9F/a1QwHwYDVR0jBBgwFoAU/Ql2xClo
5IJeTJ6Y1y49kVNVFpswDQYJKoZIhvcNAQEFBQADgYEAdT552lXzB8b9Q/ziBllB
u7Qkp8bj0h6LxsvKuUQRM4kTkTAtU0Frs3lTq+iVKXymg9ZmAL2s/E+cJa+oZQ69
kiScPFjxi5IDqrGP4lpkGmF0a2LmFlaECezMp4FP7Dc/t1WLb0a0d5gZY0fydMct
sHyug2pC83nFPMtm76xt9TQ=
-----END CERTIFICATE-----
